; Function Attrs: mustprogress nounwind uwtable
define hidden void @_ZN6hermes13GetPNamesInstC2EPNS_10BasicBlockEPNS_5ValueES4_S4_S4_S2_S2_(ptr noundef nonnull align 8 dereferenceable(132) initializes((0, 16), (18, 22)) %this, ptr readnone captures(none) %parent, ptr noundef %iteratorAddr, ptr noundef %baseAddr, ptr noundef %indexAddr, ptr noundef %sizeAddr, ptr noundef %onEmpty, ptr noundef %onSome) unnamed_addr #0 align 2 {
entry:
  tail call void @llvm.memset.p0.i64(ptr noundef nonnull align 8 dereferenceable(132) %this, i8 0, i64 16, i1 false)
  %0 = getelementptr inbounds nuw i8, ptr %this, i64 16
  %valueType.i.i.i = getelementptr inbounds nuw i8, ptr %this, i64 18
  store i16 1023, ptr %valueType.i.i.i, align 2
  %numBitmask_.i.i.i.i = getelementptr inbounds nuw i8, ptr %this, i64 20
  store i16 7, ptr %numBitmask_.i.i.i.i, align 4
  %Users.i.i.i = getelementptr inbounds nuw i8, ptr %this, i64 24
  %add.ptr.i.i.i.i.i.i.i.i = getelementptr inbounds nuw i8, ptr %this, i64 40
  store ptr %add.ptr.i.i.i.i.i.i.i.i, ptr %Users.i.i.i, align 8
  %Size.i.i.i.i.i.i.i.i = getelementptr inbounds nuw i8, ptr %this, i64 32
  store i32 0, ptr %Size.i.i.i.i.i.i.i.i, align 8
  %Capacity2.i.i.i.i.i.i.i.i = getelementptr inbounds nuw i8, ptr %this, i64 36
  store i32 2, ptr %Capacity2.i.i.i.i.i.i.i.i, align 4
  store i8 82, ptr %0, align 8
  %Parent.i.i = getelementptr inbounds nuw i8, ptr %this, i64 56
  store ptr null, ptr %Parent.i.i, align 8
  %Operands.i.i = getelementptr inbounds nuw i8, ptr %this, i64 64
  %add.ptr.i.i.i.i.i.i.i = getelementptr inbounds nuw i8, ptr %this, i64 80
  store ptr %add.ptr.i.i.i.i.i.i.i, ptr %Operands.i.i, align 8
  %Size.i.i.i.i.i.i.i = getelementptr inbounds nuw i8, ptr %this, i64 72
  store i32 0, ptr %Size.i.i.i.i.i.i.i, align 8
  %Capacity2.i.i.i.i.i.i.i = getelementptr inbounds nuw i8, ptr %this, i64 76
  store i32 2, ptr %Capacity2.i.i.i.i.i.i.i, align 4
  %SourceLevelScope.i.i = getelementptr inbounds nuw i8, ptr %this, i64 112
  tail call void @llvm.memset.p0.i64(ptr noundef nonnull align 8 dereferenceable(20) %SourceLevelScope.i.i, i8 0, i64 20, i1 false)
  tail call void @_ZN6hermes11Instruction11pushOperandEPNS_5ValueE(ptr noundef nonnull align 8 dereferenceable(132) %this, ptr noundef %iteratorAddr) #15
  tail call void @_ZN6hermes11Instruction11pushOperandEPNS_5ValueE(ptr noundef nonnull align 8 dereferenceable(132) %this, ptr noundef %baseAddr) #15
  tail call void @_ZN6hermes11Instruction11pushOperandEPNS_5ValueE(ptr noundef nonnull align 8 dereferenceable(132) %this, ptr noundef %indexAddr) #15
  tail call void @_ZN6hermes11Instruction11pushOperandEPNS_5ValueE(ptr noundef nonnull align 8 dereferenceable(132) %this, ptr noundef %sizeAddr) #15
  %1 = icmp eq ptr %onEmpty, null
  %add.ptr = getelementptr inbounds nuw i8, ptr %onEmpty, i64 16
  %spec.select = select i1 %1, ptr null, ptr %add.ptr
  tail call void @_ZN6hermes11Instruction11pushOperandEPNS_5ValueE(ptr noundef nonnull align 8 dereferenceable(132) %this, ptr noundef %spec.select) #15
  %2 = icmp eq ptr %onSome, null
  %add.ptr3 = getelementptr inbounds nuw i8, ptr %onSome, i64 16
  %cast.result5 = select i1 %2, ptr null, ptr %add.ptr3
  tail call void @_ZN6hermes11Instruction11pushOperandEPNS_5ValueE(ptr noundef nonnull align 8 dereferenceable(132) %this, ptr noundef %cast.result5) #15
  ret void
}